	.file	"test.cpp"
	.text
.Ltext0:
	.cfi_sections	.debug_frame
	.section .rdata,"dr"
	.align 8
.LC0:
	.ascii "Could not initializing FrameGrabber\0"
	.section	.text$_ZN12FrameGrabberC1EP6HWND__,"x"
	.linkonce discard
	.align 2
	.globl	_ZN12FrameGrabberC1EP6HWND__
	.def	_ZN12FrameGrabberC1EP6HWND__;	.scl	2;	.type	32;	.endef
	.seh_proc	_ZN12FrameGrabberC1EP6HWND__
_ZN12FrameGrabberC1EP6HWND__:
.LFB549:
	.file 1 "FrameGrabber.h"
	.loc 1 22 0
	.cfi_startproc
	pushq	%rbp
.LCFI0:
	.cfi_def_cfa_offset 16
	.cfi_offset 6, -16
	.seh_pushreg	%rbp
	movq	%rsp, %rbp
.LCFI1:
	.cfi_def_cfa_register 6
	pushq	%rdi
	.seh_pushreg	%rdi
	subq	$120, %rsp
	.seh_stackalloc	120
	.seh_setframe	%rbp, 128
	.seh_endprologue
	movq	%rcx, 16(%rbp)
	movq	%rdx, 24(%rbp)
.LBB2:
	.loc 1 22 0
	movq	16(%rbp), %rax
	movq	24(%rbp), %rdx
	movq	%rdx, (%rax)
.LBB3:
	.loc 1 24 0
	movq	16(%rbp), %rax
	movq	(%rax), %rax
	movq	%rax, %rcx
	movq	__imp_GetDC(%rip), %rax
	.cfi_offset 5, -24
	call	*%rax
	movq	%rax, %rdx
	movq	16(%rbp), %rax
	movq	%rdx, 8(%rax)
	.loc 1 26 0
	movq	16(%rbp), %rax
	movq	8(%rax), %rax
	testq	%rax, %rax
	je	.L10
.L2:
	.loc 1 28 0
	movq	16(%rbp), %rax
	movq	8(%rax), %rax
	movq	%rax, %rcx
	movq	__imp_CreateCompatibleDC(%rip), %rax
	call	*%rax
	movq	%rax, %rdx
	movq	16(%rbp), %rax
	movq	%rdx, 16(%rax)
	.loc 1 30 0
	movq	16(%rbp), %rax
	movq	16(%rax), %rax
	testq	%rax, %rax
	je	.L11
.L4:
	.loc 1 33 0
	movq	16(%rbp), %rax
	movq	(%rax), %rax
	leaq	-32(%rbp), %rdx
	movq	%rax, %rcx
	movq	__imp_GetClientRect(%rip), %rax
	call	*%rax
	.loc 1 34 0
	movl	-24(%rbp), %edx
	movq	16(%rbp), %rax
	movl	%edx, 48(%rax)
	.loc 1 35 0
	movl	-20(%rbp), %edx
	movq	16(%rbp), %rax
	movl	%edx, 52(%rax)
	.loc 1 37 0
	leaq	-80(%rbp), %rax
	movq	%rax, %rdx
	movl	$0, %eax
	movl	$5, %ecx
	movq	%rdx, %rdi
	rep stosq
	movq	%rdi, %rdx
	movl	%eax, (%rdx)
	addq	$4, %rdx
	.loc 1 38 0
	movl	$40, -80(%rbp)
	.loc 1 39 0
	movq	16(%rbp), %rax
	movl	48(%rax), %eax
	movl	%eax, -76(%rbp)
	.loc 1 40 0
	movq	16(%rbp), %rax
	movl	52(%rax), %eax
	negl	%eax
	movl	%eax, -72(%rbp)
	.loc 1 41 0
	movw	$1, -68(%rbp)
	.loc 1 42 0
	movw	$32, -66(%rbp)
	.loc 1 43 0
	movl	$0, -64(%rbp)
	.loc 1 45 0
	movq	16(%rbp), %rax
	leaq	40(%rax), %rcx
	movq	16(%rbp), %rax
	movq	16(%rax), %rax
	leaq	-80(%rbp), %rdx
	movl	$0, 40(%rsp)
	movq	$0, 32(%rsp)
	movq	%rcx, %r9
	movl	$0, %r8d
	movq	%rax, %rcx
	movq	__imp_CreateDIBSection(%rip), %rax
	call	*%rax
	movq	%rax, %rdx
	movq	16(%rbp), %rax
	movq	%rdx, 24(%rax)
	.loc 1 47 0
	movq	16(%rbp), %rax
	movq	24(%rax), %rax
	testq	%rax, %rax
	je	.L12
.L6:
	.loc 1 49 0
	movq	16(%rbp), %rax
	movq	24(%rax), %rdx
	movq	16(%rbp), %rax
	movq	16(%rax), %rax
	movq	%rax, %rcx
	movq	__imp_SelectObject(%rip), %rax
	call	*%rax
	movq	%rax, %rdx
	movq	16(%rbp), %rax
	movq	%rdx, 32(%rax)
	.loc 1 51 0
	movq	16(%rbp), %rax
	movq	32(%rax), %rax
	testq	%rax, %rax
	jne	.L13
	nop
.L9:
	.loc 1 56 0
	movq	16(%rbp), %rax
	movq	24(%rax), %rax
	movq	%rax, %rcx
	movq	__imp_DeleteObject(%rip), %rax
	call	*%rax
	jmp	.L7
.L12:
	.loc 1 47 0
	nop
.L7:
	.loc 1 58 0
	movq	16(%rbp), %rax
	movq	16(%rax), %rax
	movq	%rax, %rcx
	movq	__imp_DeleteDC(%rip), %rax
	call	*%rax
	jmp	.L5
.L11:
	.loc 1 30 0
	nop
.L5:
	.loc 1 60 0
	movq	16(%rbp), %rax
	movq	8(%rax), %rdx
	movq	16(%rbp), %rax
	movq	(%rax), %rax
	movq	%rax, %rcx
	movq	__imp_ReleaseDC(%rip), %rax
	call	*%rax
	jmp	.L3
.L10:
	.loc 1 26 0
	nop
.L3:
	.loc 1 62 0
	movl	$8, %ecx
	call	__cxa_allocate_exception
	leaq	.LC0(%rip), %rdx
	movq	%rdx, (%rax)
	movl	$0, %r8d
	leaq	_ZTIPKc(%rip), %rdx
	movq	%rax, %rcx
	call	__cxa_throw
.L13:
	.loc 1 53 0
	nop
.L1:
.LBE3:
.LBE2:
	.loc 1 63 0
	addq	$120, %rsp
	popq	%rdi
	.cfi_restore 5
	popq	%rbp
.LCFI2:
	.cfi_def_cfa 7, 8
	.cfi_restore 6
	ret
	.cfi_endproc
.LFE549:
	.seh_endproc
	.section	.text$_ZN12FrameGrabberD1Ev,"x"
	.linkonce discard
	.align 2
	.globl	_ZN12FrameGrabberD1Ev
	.def	_ZN12FrameGrabberD1Ev;	.scl	2;	.type	32;	.endef
	.seh_proc	_ZN12FrameGrabberD1Ev
_ZN12FrameGrabberD1Ev:
.LFB552:
	.loc 1 65 0
	.cfi_startproc
	pushq	%rbp
.LCFI3:
	.cfi_def_cfa_offset 16
	.cfi_offset 6, -16
	.seh_pushreg	%rbp
	movq	%rsp, %rbp
.LCFI4:
	.cfi_def_cfa_register 6
	subq	$32, %rsp
	.seh_stackalloc	32
	.seh_setframe	%rbp, 32
	.seh_endprologue
	movq	%rcx, 16(%rbp)
.LBB4:
	.loc 1 67 0
	movq	16(%rbp), %rax
	movq	32(%rax), %rdx
	movq	16(%rbp), %rax
	movq	16(%rax), %rax
	movq	%rax, %rcx
	movq	__imp_SelectObject(%rip), %rax
	call	*%rax
	.loc 1 68 0
	movq	16(%rbp), %rax
	movq	24(%rax), %rax
	movq	%rax, %rcx
	movq	__imp_DeleteObject(%rip), %rax
	call	*%rax
	.loc 1 69 0
	movq	16(%rbp), %rax
	movq	16(%rax), %rax
	movq	%rax, %rcx
	movq	__imp_DeleteDC(%rip), %rax
	call	*%rax
	.loc 1 70 0
	movq	16(%rbp), %rax
	movq	8(%rax), %rdx
	movq	16(%rbp), %rax
	movq	(%rax), %rax
	movq	%rax, %rcx
	movq	__imp_ReleaseDC(%rip), %rax
	call	*%rax
	nop
.LBE4:
	.loc 1 71 0
	addq	$32, %rsp
	popq	%rbp
.LCFI5:
	.cfi_def_cfa 7, 8
	.cfi_restore 6
	ret
	.cfi_endproc
.LFE552:
	.seh_endproc
	.section	.text$_ZNK12FrameGrabber15scanlineSizeGetEv,"x"
	.linkonce discard
	.align 2
	.globl	_ZNK12FrameGrabber15scanlineSizeGetEv
	.def	_ZNK12FrameGrabber15scanlineSizeGetEv;	.scl	2;	.type	32;	.endef
	.seh_proc	_ZNK12FrameGrabber15scanlineSizeGetEv
_ZNK12FrameGrabber15scanlineSizeGetEv:
.LFB553:
	.loc 1 73 0
	.cfi_startproc
	pushq	%rbp
.LCFI6:
	.cfi_def_cfa_offset 16
	.cfi_offset 6, -16
	.seh_pushreg	%rbp
	movq	%rsp, %rbp
.LCFI7:
	.cfi_def_cfa_register 6
	.seh_setframe	%rbp, 0
	.seh_endprologue
	movq	%rcx, 16(%rbp)
	.loc 1 75 0
	movq	16(%rbp), %rax
	movl	48(%rax), %eax
	sall	$5, %eax
	leal	7(%rax), %edx
	testl	%eax, %eax
	cmovs	%edx, %eax
	sarl	$3, %eax
	.loc 1 76 0
	popq	%rbp
.LCFI8:
	.cfi_def_cfa 7, 8
	.cfi_restore 6
	ret
	.cfi_endproc
.LFE553:
	.seh_endproc
	.section	.text$_ZNK12FrameGrabber8widthGetEv,"x"
	.linkonce discard
	.align 2
	.globl	_ZNK12FrameGrabber8widthGetEv
	.def	_ZNK12FrameGrabber8widthGetEv;	.scl	2;	.type	32;	.endef
	.seh_proc	_ZNK12FrameGrabber8widthGetEv
_ZNK12FrameGrabber8widthGetEv:
.LFB554:
	.loc 1 78 0
	.cfi_startproc
	pushq	%rbp
.LCFI9:
	.cfi_def_cfa_offset 16
	.cfi_offset 6, -16
	.seh_pushreg	%rbp
	movq	%rsp, %rbp
.LCFI10:
	.cfi_def_cfa_register 6
	.seh_setframe	%rbp, 0
	.seh_endprologue
	movq	%rcx, 16(%rbp)
	.loc 1 80 0
	movq	16(%rbp), %rax
	movl	48(%rax), %eax
	.loc 1 81 0
	popq	%rbp
.LCFI11:
	.cfi_def_cfa 7, 8
	.cfi_restore 6
	ret
	.cfi_endproc
.LFE554:
	.seh_endproc
	.section	.text$_ZNK12FrameGrabber9heightGetEv,"x"
	.linkonce discard
	.align 2
	.globl	_ZNK12FrameGrabber9heightGetEv
	.def	_ZNK12FrameGrabber9heightGetEv;	.scl	2;	.type	32;	.endef
	.seh_proc	_ZNK12FrameGrabber9heightGetEv
_ZNK12FrameGrabber9heightGetEv:
.LFB555:
	.loc 1 83 0
	.cfi_startproc
	pushq	%rbp
.LCFI12:
	.cfi_def_cfa_offset 16
	.cfi_offset 6, -16
	.seh_pushreg	%rbp
	movq	%rsp, %rbp
.LCFI13:
	.cfi_def_cfa_register 6
	.seh_setframe	%rbp, 0
	.seh_endprologue
	movq	%rcx, 16(%rbp)
	.loc 1 85 0
	movq	16(%rbp), %rax
	movl	52(%rax), %eax
	.loc 1 86 0
	popq	%rbp
.LCFI14:
	.cfi_def_cfa 7, 8
	.cfi_restore 6
	ret
	.cfi_endproc
.LFE555:
	.seh_endproc
	.section	.text$_ZN12FrameGrabber4grabEv,"x"
	.linkonce discard
	.align 2
	.globl	_ZN12FrameGrabber4grabEv
	.def	_ZN12FrameGrabber4grabEv;	.scl	2;	.type	32;	.endef
	.seh_proc	_ZN12FrameGrabber4grabEv
_ZN12FrameGrabber4grabEv:
.LFB556:
	.loc 1 88 0
	.cfi_startproc
	pushq	%rbp
.LCFI15:
	.cfi_def_cfa_offset 16
	.cfi_offset 6, -16
	.seh_pushreg	%rbp
	movq	%rsp, %rbp
.LCFI16:
	.cfi_def_cfa_register 6
	subq	$80, %rsp
	.seh_stackalloc	80
	.seh_setframe	%rbp, 80
	.seh_endprologue
	movq	%rcx, 16(%rbp)
	.loc 1 90 0
	movq	16(%rbp), %rax
	movq	8(%rax), %rcx
	movq	16(%rbp), %rax
	movl	52(%rax), %edx
	movq	16(%rbp), %rax
	movl	48(%rax), %r8d
	movq	16(%rbp), %rax
	movq	16(%rax), %rax
	movl	$1087111200, 64(%rsp)
	movl	$0, 56(%rsp)
	movl	$0, 48(%rsp)
	movq	%rcx, 40(%rsp)
	movl	%edx, 32(%rsp)
	movl	%r8d, %r9d
	movl	$0, %r8d
	movl	$0, %edx
	movq	%rax, %rcx
	movq	__imp_BitBlt(%rip), %rax
	call	*%rax
	.loc 1 91 0
	movq	16(%rbp), %rcx
	call	_ZN12FrameGrabber7dataGetEv
	.loc 1 92 0
	addq	$80, %rsp
	popq	%rbp
.LCFI17:
	.cfi_def_cfa 7, 8
	.cfi_restore 6
	ret
	.cfi_endproc
.LFE556:
	.seh_endproc
	.section	.text$_ZN12FrameGrabber7dataGetEv,"x"
	.linkonce discard
	.align 2
	.globl	_ZN12FrameGrabber7dataGetEv
	.def	_ZN12FrameGrabber7dataGetEv;	.scl	2;	.type	32;	.endef
	.seh_proc	_ZN12FrameGrabber7dataGetEv
_ZN12FrameGrabber7dataGetEv:
.LFB557:
	.loc 1 94 0
	.cfi_startproc
	pushq	%rbp
.LCFI18:
	.cfi_def_cfa_offset 16
	.cfi_offset 6, -16
	.seh_pushreg	%rbp
	movq	%rsp, %rbp
.LCFI19:
	.cfi_def_cfa_register 6
	.seh_setframe	%rbp, 0
	.seh_endprologue
	movq	%rcx, 16(%rbp)
	.loc 1 96 0
	movq	16(%rbp), %rax
	movq	40(%rax), %rax
	.loc 1 97 0
	popq	%rbp
.LCFI20:
	.cfi_def_cfa 7, 8
	.cfi_restore 6
	ret
	.cfi_endproc
.LFE557:
	.seh_endproc
	.section	.text$_ZN5Image9initPRowsEv,"x"
	.linkonce discard
	.align 2
	.globl	_ZN5Image9initPRowsEv
	.def	_ZN5Image9initPRowsEv;	.scl	2;	.type	32;	.endef
	.seh_proc	_ZN5Image9initPRowsEv
_ZN5Image9initPRowsEv:
.LFB595:
	.file 2 "Image.h"
	.loc 2 20 0
	.cfi_startproc
	pushq	%rbp
.LCFI21:
	.cfi_def_cfa_offset 16
	.cfi_offset 6, -16
	.seh_pushreg	%rbp
	movq	%rsp, %rbp
.LCFI22:
	.cfi_def_cfa_register 6
	pushq	%rsi
	.seh_pushreg	%rsi
	pushq	%rbx
	.seh_pushreg	%rbx
	subq	$48, %rsp
	.seh_stackalloc	48
	.seh_setframe	%rbp, 64
	.seh_endprologue
	movq	%rcx, 16(%rbp)
.LBB5:
	.loc 2 22 0
	movq	16(%rbp), %rax
	movq	(%rax), %rax
	movq	%rax, %rcx
	.cfi_offset 3, -32
	.cfi_offset 4, -24
	call	_ZNK12FrameGrabber9heightGetEv
	cltq
	salq	$3, %rax
	movq	%rax, %rcx
	call	malloc
	movq	%rax, %rdx
	movq	16(%rbp), %rax
	movq	%rdx, 8(%rax)
	.loc 2 23 0
	movq	16(%rbp), %rax
	movq	8(%rax), %rax
	testq	%rax, %rax
	jne	.L22
	.loc 2 24 0
	movl	$0, %eax
	jmp	.L23
.L22:
.LBB6:
	.loc 2 26 0
	movl	$0, -20(%rbp)
	jmp	.L24
.L25:
	.loc 2 28 0 discriminator 2
	movq	16(%rbp), %rax
	movq	8(%rax), %rax
	mov	-20(%rbp), %edx
	salq	$3, %rdx
	leaq	(%rax,%rdx), %rsi
	movq	16(%rbp), %rax
	movq	(%rax), %rax
	movq	%rax, %rcx
	call	_ZN12FrameGrabber7dataGetEv
	movq	%rax, %rbx
	movq	16(%rbp), %rax
	movq	(%rax), %rax
	movq	%rax, %rcx
	call	_ZNK12FrameGrabber15scanlineSizeGetEv
	imull	-20(%rbp), %eax
	mov	%eax, %eax
	addq	%rbx, %rax
	movq	%rax, (%rsi)
	.loc 2 26 0 discriminator 2
	addl	$1, -20(%rbp)
.L24:
	.loc 2 26 0 is_stmt 0 discriminator 1
	movq	16(%rbp), %rax
	movq	(%rax), %rax
	movq	%rax, %rcx
	call	_ZNK12FrameGrabber9heightGetEv
	movl	%eax, %edx
	sarl	$31, %edx
	xorl	%edx, %eax
	subl	%edx, %eax
	cmpl	-20(%rbp), %eax
	seta	%al
	testb	%al, %al
	jne	.L25
.LBE6:
	.loc 2 30 0 is_stmt 1
	movl	$1, %eax
.L23:
.LBE5:
	.loc 2 31 0
	addq	$48, %rsp
	popq	%rbx
	.cfi_restore 3
	popq	%rsi
	.cfi_restore 4
	popq	%rbp
.LCFI23:
	.cfi_def_cfa 7, 8
	.cfi_restore 6
	ret
	.cfi_endproc
.LFE595:
	.seh_endproc
	.section .rdata,"dr"
.LC1:
	.ascii "Could not initialize Image\0"
	.section	.text$_ZN5ImageC1ER12FrameGrabber,"x"
	.linkonce discard
	.align 2
	.globl	_ZN5ImageC1ER12FrameGrabber
	.def	_ZN5ImageC1ER12FrameGrabber;	.scl	2;	.type	32;	.endef
	.seh_proc	_ZN5ImageC1ER12FrameGrabber
_ZN5ImageC1ER12FrameGrabber:
.LFB598:
	.loc 2 34 0
	.cfi_startproc
	pushq	%rbp
.LCFI24:
	.cfi_def_cfa_offset 16
	.cfi_offset 6, -16
	.seh_pushreg	%rbp
	movq	%rsp, %rbp
.LCFI25:
	.cfi_def_cfa_register 6
	subq	$32, %rsp
	.seh_stackalloc	32
	.seh_setframe	%rbp, 32
	.seh_endprologue
	movq	%rcx, 16(%rbp)
	movq	%rdx, 24(%rbp)
.LBB7:
	.loc 2 34 0
	movq	16(%rbp), %rax
	movq	24(%rbp), %rdx
	movq	%rdx, (%rax)
	.loc 2 36 0
	movq	16(%rbp), %rcx
	call	_ZN5Image9initPRowsEv
	xorl	$1, %eax
	testb	%al, %al
	je	.L26
	.loc 2 38 0
	movl	$8, %ecx
	call	__cxa_allocate_exception
	leaq	.LC1(%rip), %rdx
	movq	%rdx, (%rax)
	movl	$0, %r8d
	leaq	_ZTIPKc(%rip), %rdx
	movq	%rax, %rcx
	call	__cxa_throw
	nop
.L26:
.LBE7:
	.loc 2 40 0
	addq	$32, %rsp
	popq	%rbp
.LCFI26:
	.cfi_def_cfa 7, 8
	.cfi_restore 6
	ret
	.cfi_endproc
.LFE598:
	.seh_endproc
	.section	.text$_ZN5Image7rowsGetEv,"x"
	.linkonce discard
	.align 2
	.globl	_ZN5Image7rowsGetEv
	.def	_ZN5Image7rowsGetEv;	.scl	2;	.type	32;	.endef
	.seh_proc	_ZN5Image7rowsGetEv
_ZN5Image7rowsGetEv:
.LFB599:
	.loc 2 42 0
	.cfi_startproc
	pushq	%rbp
.LCFI27:
	.cfi_def_cfa_offset 16
	.cfi_offset 6, -16
	.seh_pushreg	%rbp
	movq	%rsp, %rbp
.LCFI28:
	.cfi_def_cfa_register 6
	.seh_setframe	%rbp, 0
	.seh_endprologue
	movq	%rcx, 16(%rbp)
	.loc 2 44 0
	movq	16(%rbp), %rax
	movq	8(%rax), %rax
	.loc 2 45 0
	popq	%rbp
.LCFI29:
	.cfi_def_cfa 7, 8
	.cfi_restore 6
	ret
	.cfi_endproc
.LFE599:
	.seh_endproc
	.section	.text$_ZN5ImageD1Ev,"x"
	.linkonce discard
	.align 2
	.globl	_ZN5ImageD1Ev
	.def	_ZN5ImageD1Ev;	.scl	2;	.type	32;	.endef
	.seh_proc	_ZN5ImageD1Ev
_ZN5ImageD1Ev:
.LFB603:
	.loc 2 55 0
	.cfi_startproc
	pushq	%rbp
.LCFI30:
	.cfi_def_cfa_offset 16
	.cfi_offset 6, -16
	.seh_pushreg	%rbp
	movq	%rsp, %rbp
.LCFI31:
	.cfi_def_cfa_register 6
	subq	$32, %rsp
	.seh_stackalloc	32
	.seh_setframe	%rbp, 32
	.seh_endprologue
	movq	%rcx, 16(%rbp)
.LBB8:
	.loc 2 57 0
	movq	16(%rbp), %rax
	movq	8(%rax), %rax
	movq	%rax, %rcx
	call	free
	nop
.LBE8:
	.loc 2 58 0
	addq	$32, %rsp
	popq	%rbp
.LCFI32:
	.cfi_def_cfa 7, 8
	.cfi_restore 6
	ret
	.cfi_endproc
.LFE603:
	.seh_endproc
	.section	.text$_ZN6PngCRCC1Ev,"x"
	.linkonce discard
	.align 2
	.globl	_ZN6PngCRCC1Ev
	.def	_ZN6PngCRCC1Ev;	.scl	2;	.type	32;	.endef
	.seh_proc	_ZN6PngCRCC1Ev
_ZN6PngCRCC1Ev:
.LFB606:
	.file 3 "crc.h"
	.loc 3 9 0
	.cfi_startproc
	pushq	%rbp
.LCFI33:
	.cfi_def_cfa_offset 16
	.cfi_offset 6, -16
	.seh_pushreg	%rbp
	movq	%rsp, %rbp
.LCFI34:
	.cfi_def_cfa_register 6
	subq	$16, %rsp
	.seh_stackalloc	16
	.seh_setframe	%rbp, 16
	.seh_endprologue
	movq	%rcx, 16(%rbp)
.LBB9:
.LBB10:
	.loc 3 13 0
	movl	$0, -8(%rbp)
	jmp	.L32
.L37:
	.loc 3 15 0
	movl	-8(%rbp), %eax
	movl	%eax, -4(%rbp)
	.loc 3 16 0
	movl	$0, -12(%rbp)
	jmp	.L33
.L36:
	.loc 3 18 0
	movl	-4(%rbp), %eax
	andl	$1, %eax
	testb	%al, %al
	je	.L34
	.loc 3 19 0
	movl	-4(%rbp), %eax
	shrl	%eax
	xorl	$-306674912, %eax
	movl	%eax, -4(%rbp)
	jmp	.L35
.L34:
	.loc 3 21 0
	shrl	-4(%rbp)
.L35:
	.loc 3 16 0
	addl	$1, -12(%rbp)
.L33:
	.loc 3 16 0 is_stmt 0 discriminator 1
	cmpl	$7, -12(%rbp)
	setle	%al
	testb	%al, %al
	jne	.L36
	.loc 3 23 0 is_stmt 1
	movq	16(%rbp), %rax
	movl	-8(%rbp), %edx
	movslq	%edx, %rdx
	movl	-4(%rbp), %ecx
	movl	%ecx, (%rax,%rdx,4)
	.loc 3 13 0
	addl	$1, -8(%rbp)
.L32:
	.loc 3 13 0 is_stmt 0 discriminator 1
	cmpl	$255, -8(%rbp)
	setle	%al
	testb	%al, %al
	jne	.L37
.LBE10:
.LBE9:
	.loc 3 25 0 is_stmt 1
	addq	$16, %rsp
	popq	%rbp
.LCFI35:
	.cfi_def_cfa 7, 8
	.cfi_restore 6
	ret
	.cfi_endproc
.LFE606:
	.seh_endproc
	.section	.text$_ZNK6PngCRCclEPKvy,"x"
	.linkonce discard
	.align 2
	.globl	_ZNK6PngCRCclEPKvy
	.def	_ZNK6PngCRCclEPKvy;	.scl	2;	.type	32;	.endef
	.seh_proc	_ZNK6PngCRCclEPKvy
_ZNK6PngCRCclEPKvy:
.LFB607:
	.loc 3 27 0
	.cfi_startproc
	pushq	%rbp
.LCFI36:
	.cfi_def_cfa_offset 16
	.cfi_offset 6, -16
	.seh_pushreg	%rbp
	movq	%rsp, %rbp
.LCFI37:
	.cfi_def_cfa_register 6
	subq	$32, %rsp
	.seh_stackalloc	32
	.seh_setframe	%rbp, 32
	.seh_endprologue
	movq	%rcx, 16(%rbp)
	movq	%rdx, 24(%rbp)
	movq	%r8, 32(%rbp)
	.loc 3 29 0
	movq	32(%rbp), %rdx
	movq	24(%rbp), %rax
	movq	%rdx, %r8
	movq	%rax, %rdx
	movq	16(%rbp), %rcx
	call	_ZNK6PngCRC8crc_charEPKhy
	.loc 3 30 0
	addq	$32, %rsp
	popq	%rbp
.LCFI38:
	.cfi_def_cfa 7, 8
	.cfi_restore 6
	ret
	.cfi_endproc
.LFE607:
	.seh_endproc
	.section	.text$_ZNK6PngCRC9crcUpdateEjPKhy,"x"
	.linkonce discard
	.align 2
	.globl	_ZNK6PngCRC9crcUpdateEjPKhy
	.def	_ZNK6PngCRC9crcUpdateEjPKhy;	.scl	2;	.type	32;	.endef
	.seh_proc	_ZNK6PngCRC9crcUpdateEjPKhy
_ZNK6PngCRC9crcUpdateEjPKhy:
.LFB608:
	.loc 3 35 0
	.cfi_startproc
	pushq	%rbp
.LCFI39:
	.cfi_def_cfa_offset 16
	.cfi_offset 6, -16
	.seh_pushreg	%rbp
	movq	%rsp, %rbp
.LCFI40:
	.cfi_def_cfa_register 6
	subq	$16, %rsp
	.seh_stackalloc	16
	.seh_setframe	%rbp, 16
	.seh_endprologue
	movq	%rcx, 16(%rbp)
	movl	%edx, 24(%rbp)
	movq	%r8, 32(%rbp)
	movq	%r9, 40(%rbp)
.LBB11:
	.loc 3 38 0
	movq	$0, -8(%rbp)
	jmp	.L40
.L41:
	.loc 3 39 0 discriminator 2
	movq	-8(%rbp), %rax
	movq	32(%rbp), %rdx
	addq	%rdx, %rax
	movzbl	(%rax), %eax
	movzbl	%al, %eax
	xorl	24(%rbp), %eax
	movzbl	%al, %edx
	movq	16(%rbp), %rax
	mov	%edx, %edx
	movl	(%rax,%rdx,4), %eax
	movl	24(%rbp), %edx
	shrl	$8, %edx
	xorl	%edx, %eax
	movl	%eax, 24(%rbp)
	.loc 3 38 0 discriminator 2
	addq	$1, -8(%rbp)
.L40:
	.loc 3 38 0 is_stmt 0 discriminator 1
	movq	-8(%rbp), %rax
	cmpq	40(%rbp), %rax
	setb	%al
	testb	%al, %al
	jne	.L41
	.loc 3 40 0 is_stmt 1
	movl	24(%rbp), %eax
.LBE11:
	.loc 3 41 0
	addq	$16, %rsp
	popq	%rbp
.LCFI41:
	.cfi_def_cfa 7, 8
	.cfi_restore 6
	ret
	.cfi_endproc
.LFE608:
	.seh_endproc
	.section	.text$_ZNK6PngCRC8crc_charEPKhy,"x"
	.linkonce discard
	.align 2
	.globl	_ZNK6PngCRC8crc_charEPKhy
	.def	_ZNK6PngCRC8crc_charEPKhy;	.scl	2;	.type	32;	.endef
	.seh_proc	_ZNK6PngCRC8crc_charEPKhy
_ZNK6PngCRC8crc_charEPKhy:
.LFB609:
	.loc 3 43 0
	.cfi_startproc
	pushq	%rbp
.LCFI42:
	.cfi_def_cfa_offset 16
	.cfi_offset 6, -16
	.seh_pushreg	%rbp
	movq	%rsp, %rbp
.LCFI43:
	.cfi_def_cfa_register 6
	subq	$32, %rsp
	.seh_stackalloc	32
	.seh_setframe	%rbp, 32
	.seh_endprologue
	movq	%rcx, 16(%rbp)
	movq	%rdx, 24(%rbp)
	movq	%r8, 32(%rbp)
	.loc 3 45 0
	movq	32(%rbp), %rdx
	movq	24(%rbp), %rax
	movq	%rdx, %r9
	movq	%rax, %r8
	movl	$-1, %edx
	movq	16(%rbp), %rcx
	call	_ZNK6PngCRC9crcUpdateEjPKhy
	notl	%eax
	.loc 3 46 0
	addq	$32, %rsp
	popq	%rbp
.LCFI44:
	.cfi_def_cfa 7, 8
	.cfi_restore 6
	ret
	.cfi_endproc
.LFE609:
	.seh_endproc
	.text
	.globl	_Z6assignPvi
	.def	_Z6assignPvi;	.scl	2;	.type	32;	.endef
	.seh_proc	_Z6assignPvi
_Z6assignPvi:
.LFB965:
	.file 4 "test.cpp"
	.loc 4 16 0
	.cfi_startproc
	pushq	%rbp
.LCFI45:
	.cfi_def_cfa_offset 16
	.cfi_offset 6, -16
	.seh_pushreg	%rbp
	movq	%rsp, %rbp
.LCFI46:
	.cfi_def_cfa_register 6
	subq	$16, %rsp
	.seh_stackalloc	16
	.seh_setframe	%rbp, 16
	.seh_endprologue
	movq	%rcx, 16(%rbp)
	movl	%edx, 24(%rbp)
.LBB12:
	.loc 4 17 0
	leaq	24(%rbp), %rax
	movq	%rax, -8(%rbp)
	.loc 4 18 0
	movq	16(%rbp), %rax
	movq	%rax, -16(%rbp)
	.loc 4 19 0
	movq	-8(%rbp), %rax
	movzbl	(%rax), %edx
	movq	-16(%rbp), %rax
	movb	%dl, (%rax)
	.loc 4 20 0
	movq	-16(%rbp), %rax
	leaq	1(%rax), %rdx
	movq	-8(%rbp), %rax
	movzbl	1(%rax), %eax
	movb	%al, (%rdx)
	.loc 4 21 0
	movq	-16(%rbp), %rax
	leaq	2(%rax), %rdx
	movq	-8(%rbp), %rax
	movzbl	2(%rax), %eax
	movb	%al, (%rdx)
	.loc 4 22 0
	movq	-16(%rbp), %rax
	leaq	3(%rax), %rdx
	movq	-8(%rbp), %rax
	movzbl	3(%rax), %eax
	movb	%al, (%rdx)
.LBE12:
	.loc 4 23 0
	addq	$16, %rsp
	popq	%rbp
.LCFI47:
	.cfi_def_cfa 7, 8
	.cfi_restore 6
	ret
	.cfi_endproc
.LFE965:
	.seh_endproc
	.section	.text$_Z10swap_bytesj,"x"
	.linkonce discard
	.globl	_Z10swap_bytesj
	.def	_Z10swap_bytesj;	.scl	2;	.type	32;	.endef
	.seh_proc	_Z10swap_bytesj
_Z10swap_bytesj:
.LFB966:
	.loc 4 26 0
	.cfi_startproc
	pushq	%rbp
.LCFI48:
	.cfi_def_cfa_offset 16
	.cfi_offset 6, -16
	.seh_pushreg	%rbp
	movq	%rsp, %rbp
.LCFI49:
	.cfi_def_cfa_register 6
	.seh_setframe	%rbp, 0
	.seh_endprologue
	movl	%ecx, 16(%rbp)
	.loc 4 27 0
	movl	16(%rbp), %eax
/APP
 # 27 "test.cpp" 1
	bswap %eax
 # 0 "" 2
/NO_APP
	movl	%eax, 16(%rbp)
	.loc 4 28 0
	movl	16(%rbp), %eax
	.loc 4 29 0
	popq	%rbp
.LCFI50:
	.cfi_def_cfa 7, 8
	.cfi_restore 6
	ret
	.cfi_endproc
.LFE966:
	.seh_endproc
	.text
	.globl	_Z11filterApplyPKPKhPcii
	.def	_Z11filterApplyPKPKhPcii;	.scl	2;	.type	32;	.endef
	.seh_proc	_Z11filterApplyPKPKhPcii
_Z11filterApplyPKPKhPcii:
.LFB967:
	.loc 4 34 0
	.cfi_startproc
	pushq	%rbp
.LCFI51:
	.cfi_def_cfa_offset 16
	.cfi_offset 6, -16
	.seh_pushreg	%rbp
	movq	%rsp, %rbp
.LCFI52:
	.cfi_def_cfa_register 6
	subq	$64, %rsp
	.seh_stackalloc	64
	.seh_setframe	%rbp, 64
	.seh_endprologue
	movq	%rcx, 16(%rbp)
	movq	%rdx, 24(%rbp)
	movl	%r8d, 32(%rbp)
	movl	%r9d, 40(%rbp)
.LBB13:
	.loc 4 36 0
	movq	16(%rbp), %rax
	movq	%rax, -8(%rbp)
.LBB14:
	.loc 4 37 0
	movl	$0, -12(%rbp)
	jmp	.L46
.L49:
.LBB15:
	.loc 4 40 0
	movq	24(%rbp), %rax
	movb	$0, (%rax)
	.loc 4 41 0
	addq	$1, 24(%rbp)
	.loc 4 42 0
	movq	-8(%rbp), %rax
	movq	(%rax), %rax
	movq	%rax, -24(%rbp)
.LBB16:
	.loc 4 43 0
	movl	$0, -28(%rbp)
	jmp	.L47
.L48:
	.loc 4 46 0 discriminator 2
	movq	-24(%rbp), %rax
	movl	(%rax), %eax
	movl	%eax, %ecx
	call	_Z10swap_bytesj
	shrl	$8, %eax
	movl	%eax, %edx
	movq	24(%rbp), %rax
	movq	%rax, %rcx
	call	_Z6assignPvi
	.loc 4 47 0 discriminator 2
	addq	$3, 24(%rbp)
	.loc 4 48 0 discriminator 2
	addq	$4, -24(%rbp)
	.loc 4 43 0 discriminator 2
	addl	$1, -28(%rbp)
.L47:
	.loc 4 43 0 is_stmt 0 discriminator 1
	movl	-28(%rbp), %eax
	cmpl	32(%rbp), %eax
	setl	%al
	testb	%al, %al
	jne	.L48
.LBE16:
	.loc 4 50 0 is_stmt 1
	addq	$8, -8(%rbp)
.LBE15:
	.loc 4 37 0
	addl	$1, -12(%rbp)
.L46:
	.loc 4 37 0 is_stmt 0 discriminator 1
	movl	-12(%rbp), %eax
	cmpl	40(%rbp), %eax
	setl	%al
	testb	%al, %al
	jne	.L49
.LBE14:
.LBE13:
	.loc 4 52 0 is_stmt 1
	addq	$64, %rsp
	popq	%rbp
.LCFI53:
	.cfi_def_cfa 7, 8
	.cfi_restore 6
	ret
	.cfi_endproc
.LFE967:
	.seh_endproc
	.section .rdata,"dr"
.LC2:
	.ascii "1.2.7\0"
.LC3:
	.ascii "%u\12\0"
	.text
	.globl	_Z8compressPKcPcy
	.def	_Z8compressPKcPcy;	.scl	2;	.type	32;	.endef
	.seh_proc	_Z8compressPKcPcy
_Z8compressPKcPcy:
.LFB968:
	.loc 4 55 0
	.cfi_startproc
	pushq	%rbp
.LCFI54:
	.cfi_def_cfa_offset 16
	.cfi_offset 6, -16
	.seh_pushreg	%rbp
	movq	%rsp, %rbp
.LCFI55:
	.cfi_def_cfa_register 6
	pushq	%rdi
	.seh_pushreg	%rdi
	subq	$168, %rsp
	.seh_stackalloc	168
	.seh_setframe	%rbp, 176
	.seh_endprologue
	movq	%rcx, 16(%rbp)
	movq	%rdx, 24(%rbp)
	movq	%r8, 32(%rbp)
.LBB17:
	.loc 4 57 0
	leaq	-112(%rbp), %rax
	movq	%rax, %r8
	movl	$0, %eax
	movl	$11, %edx
	movq	%r8, %rdi
	.cfi_offset 5, -24
	movq	%rdx, %rcx
	rep stosq
	.loc 4 59 0
	leaq	-112(%rbp), %rax
	movl	$88, 56(%rsp)
	leaq	.LC2(%rip), %rdx
	movq	%rdx, 48(%rsp)
	movl	$1, 40(%rsp)
	movl	$9, 32(%rsp)
	movl	$15, %r9d
	movl	$8, %r8d
	movl	$6, %edx
	movq	%rax, %rcx
	call	deflateInit2_
	.loc 4 61 0
	movq	32(%rbp), %rax
	movl	%eax, -104(%rbp)
	.loc 4 62 0
	movq	16(%rbp), %rax
	movq	%rax, -112(%rbp)
	.loc 4 63 0
	movq	32(%rbp), %rax
	movl	%eax, -88(%rbp)
	.loc 4 64 0
	movq	24(%rbp), %rax
	movq	%rax, -96(%rbp)
	.loc 4 65 0
	leaq	-112(%rbp), %rax
	movl	$4, %edx
	movq	%rax, %rcx
	call	deflate
	movl	%eax, %edx
	leaq	.LC3(%rip), %rcx
	call	printf
	.loc 4 67 0
	leaq	-112(%rbp), %rax
	movq	%rax, %rcx
	call	deflateEnd
	.loc 4 68 0
	movl	-84(%rbp), %eax
	mov	%eax, %eax
.LBE17:
	.loc 4 69 0
	addq	$168, %rsp
	popq	%rdi
	.cfi_restore 5
	popq	%rbp
.LCFI56:
	.cfi_def_cfa 7, 8
	.cfi_restore 6
	ret
	.cfi_endproc
.LFE968:
	.seh_endproc
	.globl	_Z13Chunk_sizeSetPcj
	.def	_Z13Chunk_sizeSetPcj;	.scl	2;	.type	32;	.endef
	.seh_proc	_Z13Chunk_sizeSetPcj
_Z13Chunk_sizeSetPcj:
.LFB969:
	.loc 4 80 0
	.cfi_startproc
	pushq	%rbp
.LCFI57:
	.cfi_def_cfa_offset 16
	.cfi_offset 6, -16
	.seh_pushreg	%rbp
	movq	%rsp, %rbp
.LCFI58:
	.cfi_def_cfa_register 6
	subq	$32, %rsp
	.seh_stackalloc	32
	.seh_setframe	%rbp, 32
	.seh_endprologue
	movq	%rcx, 16(%rbp)
	movl	%edx, 24(%rbp)
	.loc 4 80 0
	movl	24(%rbp), %eax
	movl	%eax, %ecx
	call	_Z10swap_bytesj
	movl	%eax, %edx
	movq	16(%rbp), %rcx
	call	_Z6assignPvi
	nop
	addq	$32, %rsp
	popq	%rbp
.LCFI59:
	.cfi_def_cfa 7, 8
	.cfi_restore 6
	ret
	.cfi_endproc
.LFE969:
	.seh_endproc
	.globl	_Z11Chunk_IDSetPcj
	.def	_Z11Chunk_IDSetPcj;	.scl	2;	.type	32;	.endef
	.seh_proc	_Z11Chunk_IDSetPcj
_Z11Chunk_IDSetPcj:
.LFB970:
	.loc 4 83 0
	.cfi_startproc
	pushq	%rbp
.LCFI60:
	.cfi_def_cfa_offset 16
	.cfi_offset 6, -16
	.seh_pushreg	%rbp
	movq	%rsp, %rbp
.LCFI61:
	.cfi_def_cfa_register 6
	subq	$32, %rsp
	.seh_stackalloc	32
	.seh_setframe	%rbp, 32
	.seh_endprologue
	movq	%rcx, 16(%rbp)
	movl	%edx, 24(%rbp)
	.loc 4 83 0
	movl	24(%rbp), %eax
	movl	%eax, %ecx
	call	_Z10swap_bytesj
	movq	16(%rbp), %rdx
	leaq	4(%rdx), %rcx
	movl	%eax, %edx
	call	_Z6assignPvi
	nop
	addq	$32, %rsp
	popq	%rbp
.LCFI62:
	.cfi_def_cfa 7, 8
	.cfi_restore 6
	ret
	.cfi_endproc
.LFE970:
	.seh_endproc
	.globl	_Z12Chunk_CRCSetPcRK6PngCRCj
	.def	_Z12Chunk_CRCSetPcRK6PngCRCj;	.scl	2;	.type	32;	.endef
	.seh_proc	_Z12Chunk_CRCSetPcRK6PngCRCj
_Z12Chunk_CRCSetPcRK6PngCRCj:
.LFB971:
	.loc 4 86 0
	.cfi_startproc
	pushq	%rbp
.LCFI63:
	.cfi_def_cfa_offset 16
	.cfi_offset 6, -16
	.seh_pushreg	%rbp
	movq	%rsp, %rbp
.LCFI64:
	.cfi_def_cfa_register 6
	subq	$32, %rsp
	.seh_stackalloc	32
	.seh_setframe	%rbp, 32
	.seh_endprologue
	movq	%rcx, 16(%rbp)
	movq	%rdx, 24(%rbp)
	movl	%r8d, 32(%rbp)
	.loc 4 87 0
	movl	32(%rbp), %eax
	addl	$4, %eax
	mov	%eax, %ecx
	movq	16(%rbp), %rax
	leaq	4(%rax), %rdx
	movq	24(%rbp), %rax
	movq	%rcx, %r8
	movq	%rax, %rcx
	call	_ZNK6PngCRCclEPKvy
	movl	%eax, %ecx
	call	_Z10swap_bytesj
	movl	%eax, %edx
	mov	32(%rbp), %eax
	addq	$8, %rax
	addq	16(%rbp), %rax
	movq	%rax, %rcx
	call	_Z6assignPvi
	nop
	.loc 4 88 0
	addq	$32, %rsp
	popq	%rbp
.LCFI65:
	.cfi_def_cfa 7, 8
	.cfi_restore 6
	ret
	.cfi_endproc
.LFE971:
	.seh_endproc
	.globl	_Z13IHDR_widthSetPci
	.def	_Z13IHDR_widthSetPci;	.scl	2;	.type	32;	.endef
	.seh_proc	_Z13IHDR_widthSetPci
_Z13IHDR_widthSetPci:
.LFB972:
	.loc 4 96 0
	.cfi_startproc
	pushq	%rbp
.LCFI66:
	.cfi_def_cfa_offset 16
	.cfi_offset 6, -16
	.seh_pushreg	%rbp
	movq	%rsp, %rbp
.LCFI67:
	.cfi_def_cfa_register 6
	subq	$32, %rsp
	.seh_stackalloc	32
	.seh_setframe	%rbp, 32
	.seh_endprologue
	movq	%rcx, 16(%rbp)
	movl	%edx, 24(%rbp)
	.loc 4 96 0
	movl	24(%rbp), %eax
	movl	%eax, %ecx
	call	_Z10swap_bytesj
	movq	16(%rbp), %rdx
	leaq	8(%rdx), %rcx
	movl	%eax, %edx
	call	_Z6assignPvi
	nop
	addq	$32, %rsp
	popq	%rbp
.LCFI68:
	.cfi_def_cfa 7, 8
	.cfi_restore 6
	ret
	.cfi_endproc
.LFE972:
	.seh_endproc
	.globl	_Z14IHDR_heightSetPci
	.def	_Z14IHDR_heightSetPci;	.scl	2;	.type	32;	.endef
	.seh_proc	_Z14IHDR_heightSetPci
_Z14IHDR_heightSetPci:
.LFB973:
	.loc 4 99 0
	.cfi_startproc
	pushq	%rbp
.LCFI69:
	.cfi_def_cfa_offset 16
	.cfi_offset 6, -16
	.seh_pushreg	%rbp
	movq	%rsp, %rbp
.LCFI70:
	.cfi_def_cfa_register 6
	subq	$32, %rsp
	.seh_stackalloc	32
	.seh_setframe	%rbp, 32
	.seh_endprologue
	movq	%rcx, 16(%rbp)
	movl	%edx, 24(%rbp)
	.loc 4 99 0
	movl	24(%rbp), %eax
	movl	%eax, %ecx
	call	_Z10swap_bytesj
	movq	16(%rbp), %rdx
	leaq	12(%rdx), %rcx
	movl	%eax, %edx
	call	_Z6assignPvi
	nop
	addq	$32, %rsp
	popq	%rbp
.LCFI71:
	.cfi_def_cfa 7, 8
	.cfi_restore 6
	ret
	.cfi_endproc
.LFE973:
	.seh_endproc
	.globl	_Z16IHDR_bitDepthSetPcc
	.def	_Z16IHDR_bitDepthSetPcc;	.scl	2;	.type	32;	.endef
	.seh_proc	_Z16IHDR_bitDepthSetPcc
_Z16IHDR_bitDepthSetPcc:
.LFB974:
	.loc 4 102 0
	.cfi_startproc
	pushq	%rbp
.LCFI72:
	.cfi_def_cfa_offset 16
	.cfi_offset 6, -16
	.seh_pushreg	%rbp
	movq	%rsp, %rbp
.LCFI73:
	.cfi_def_cfa_register 6
	.seh_setframe	%rbp, 0
	.seh_endprologue
	movq	%rcx, 16(%rbp)
	movl	%edx, %eax
	movb	%al, 24(%rbp)
	.loc 4 102 0
	movq	16(%rbp), %rax
	leaq	16(%rax), %rdx
	movzbl	24(%rbp), %eax
	movb	%al, (%rdx)
	popq	%rbp
.LCFI74:
	.cfi_def_cfa 7, 8
	.cfi_restore 6
	ret
	.cfi_endproc
.LFE974:
	.seh_endproc
	.globl	_Z17IHDR_colorTypeSetPcc
	.def	_Z17IHDR_colorTypeSetPcc;	.scl	2;	.type	32;	.endef
	.seh_proc	_Z17IHDR_colorTypeSetPcc
_Z17IHDR_colorTypeSetPcc:
.LFB975:
	.loc 4 105 0
	.cfi_startproc
	pushq	%rbp
.LCFI75:
	.cfi_def_cfa_offset 16
	.cfi_offset 6, -16
	.seh_pushreg	%rbp
	movq	%rsp, %rbp
.LCFI76:
	.cfi_def_cfa_register 6
	.seh_setframe	%rbp, 0
	.seh_endprologue
	movq	%rcx, 16(%rbp)
	movl	%edx, %eax
	movb	%al, 24(%rbp)
	.loc 4 105 0
	movq	16(%rbp), %rax
	leaq	17(%rax), %rdx
	movzbl	24(%rbp), %eax
	movb	%al, (%rdx)
	popq	%rbp
.LCFI77:
	.cfi_def_cfa 7, 8
	.cfi_restore 6
	ret
	.cfi_endproc
.LFE975:
	.seh_endproc
	.globl	_Z25IHDR_compressionMethodSetPcc
	.def	_Z25IHDR_compressionMethodSetPcc;	.scl	2;	.type	32;	.endef
	.seh_proc	_Z25IHDR_compressionMethodSetPcc
_Z25IHDR_compressionMethodSetPcc:
.LFB976:
	.loc 4 108 0
	.cfi_startproc
	pushq	%rbp
.LCFI78:
	.cfi_def_cfa_offset 16
	.cfi_offset 6, -16
	.seh_pushreg	%rbp
	movq	%rsp, %rbp
.LCFI79:
	.cfi_def_cfa_register 6
	.seh_setframe	%rbp, 0
	.seh_endprologue
	movq	%rcx, 16(%rbp)
	movl	%edx, %eax
	movb	%al, 24(%rbp)
	.loc 4 108 0
	movq	16(%rbp), %rax
	leaq	18(%rax), %rdx
	movzbl	24(%rbp), %eax
	movb	%al, (%rdx)
	popq	%rbp
.LCFI80:
	.cfi_def_cfa 7, 8
	.cfi_restore 6
	ret
	.cfi_endproc
.LFE976:
	.seh_endproc
	.globl	_Z20IHDR_filterMethodSetPcc
	.def	_Z20IHDR_filterMethodSetPcc;	.scl	2;	.type	32;	.endef
	.seh_proc	_Z20IHDR_filterMethodSetPcc
_Z20IHDR_filterMethodSetPcc:
.LFB977:
	.loc 4 111 0
	.cfi_startproc
	pushq	%rbp
.LCFI81:
	.cfi_def_cfa_offset 16
	.cfi_offset 6, -16
	.seh_pushreg	%rbp
	movq	%rsp, %rbp
.LCFI82:
	.cfi_def_cfa_register 6
	.seh_setframe	%rbp, 0
	.seh_endprologue
	movq	%rcx, 16(%rbp)
	movl	%edx, %eax
	movb	%al, 24(%rbp)
	.loc 4 111 0
	movq	16(%rbp), %rax
	leaq	19(%rax), %rdx
	movzbl	24(%rbp), %eax
	movb	%al, (%rdx)
	popq	%rbp
.LCFI83:
	.cfi_def_cfa 7, 8
	.cfi_restore 6
	ret
	.cfi_endproc
.LFE977:
	.seh_endproc
	.globl	_Z23IHDR_interlaceMethodSetPcc
	.def	_Z23IHDR_interlaceMethodSetPcc;	.scl	2;	.type	32;	.endef
	.seh_proc	_Z23IHDR_interlaceMethodSetPcc
_Z23IHDR_interlaceMethodSetPcc:
.LFB978:
	.loc 4 114 0
	.cfi_startproc
	pushq	%rbp
.LCFI84:
	.cfi_def_cfa_offset 16
	.cfi_offset 6, -16
	.seh_pushreg	%rbp
	movq	%rsp, %rbp
.LCFI85:
	.cfi_def_cfa_register 6
	.seh_setframe	%rbp, 0
	.seh_endprologue
	movq	%rcx, 16(%rbp)
	movl	%edx, %eax
	movb	%al, 24(%rbp)
	.loc 4 114 0
	movq	16(%rbp), %rax
	leaq	20(%rax), %rdx
	movzbl	24(%rbp), %eax
	movb	%al, (%rdx)
	popq	%rbp
.LCFI86:
	.cfi_def_cfa 7, 8
	.cfi_restore 6
	ret
	.cfi_endproc
.LFE978:
	.seh_endproc
	.def	__main;	.scl	2;	.type	32;	.endef
	.section .rdata,"dr"
.LC4:
	.ascii "wb\0"
.LC5:
	.ascii "test.png\0"
	.def	__gxx_personality_sj0;	.scl	2;	.type	32;	.endef
	.def	_Unwind_SjLj_Register;	.scl	2;	.type	32;	.endef
	.def	_Unwind_SjLj_Unregister;	.scl	2;	.type	32;	.endef
	.text
	.globl	main
	.def	main;	.scl	2;	.type	32;	.endef
	.seh_proc	main
main:
.LFB979:
	.loc 4 119 0
	.cfi_startproc
	.cfi_personality 0x9b,.LDFCM0
	.cfi_lsda 0x1b,.LLSDA979
	pushq	%rbp
.LCFI87:
	.cfi_def_cfa_offset 16
	.cfi_offset 6, -16
	.seh_pushreg	%rbp
	pushq	%r15
.LCFI88:
	.cfi_def_cfa_offset 24
	.cfi_offset 15, -24
	.seh_pushreg	%r15
	pushq	%r14
.LCFI89:
	.cfi_def_cfa_offset 32
	.cfi_offset 14, -32
	.seh_pushreg	%r14
	pushq	%r13
.LCFI90:
	.cfi_def_cfa_offset 40
	.cfi_offset 13, -40
	.seh_pushreg	%r13
	pushq	%r12
.LCFI91:
	.cfi_def_cfa_offset 48
	.cfi_offset 12, -48
	.seh_pushreg	%r12
	pushq	%rdi
.LCFI92:
	.cfi_def_cfa_offset 56
	.cfi_offset 5, -56
	.seh_pushreg	%rdi
	pushq	%rsi
.LCFI93:
	.cfi_def_cfa_offset 64
	.cfi_offset 4, -64
	.seh_pushreg	%rsi
	pushq	%rbx
.LCFI94:
	.cfi_def_cfa_offset 72
	.cfi_offset 3, -72
	.seh_pushreg	%rbx
	subq	$1544, %rsp
.LCFI95:
	.cfi_def_cfa_offset 1616
	.seh_stackalloc	1544
	leaq	128(%rsp), %rbp
.LCFI96:
	.cfi_def_cfa 6, 1488
	movaps	%xmm6, 1248(%rbp)
	.seh_savexmm	%xmm6, 1376
	movaps	%xmm7, 1264(%rbp)
	.seh_savexmm	%xmm7, 1392
	movaps	%xmm8, 1280(%rbp)
	.seh_savexmm	%xmm8, 1408
	movaps	%xmm9, 1296(%rbp)
	.seh_savexmm	%xmm9, 1424
	movaps	%xmm10, 1312(%rbp)
	.seh_savexmm	%xmm10, 1440
	movaps	%xmm11, 1328(%rbp)
	.seh_savexmm	%xmm11, 1456
	movaps	%xmm12, 1344(%rbp)
	.seh_savexmm	%xmm12, 1472
	movaps	%xmm13, 1360(%rbp)
	.seh_savexmm	%xmm13, 1488
	movaps	%xmm14, 1376(%rbp)
	.seh_savexmm	%xmm14, 1504
	movaps	%xmm15, 1392(%rbp)
	.seh_savexmm	%xmm15, 1520
	.seh_setframe	%rbp, 128
	.seh_endprologue
	leaq	__gxx_personality_sj0(%rip), %rax
	movq	%rax, -16(%rbp)
	leaq	.LLSDA979(%rip), %rax
	movq	%rax, -8(%rbp)
	movq	%rbp, %rax
	leaq	1248(%rbp), %rdx
	movq	%rdx, (%rax)
	leaq	.L64(%rip), %rdx
	movq	%rdx, 8(%rax)
	movq	%rsp, 16(%rax)
	leaq	-64(%rbp), %rax
	movq	%rax, %rcx
	.cfi_offset 32, -96
	.cfi_offset 31, -112
	.cfi_offset 30, -128
	.cfi_offset 29, -144
	.cfi_offset 28, -160
	.cfi_offset 27, -176
	.cfi_offset 26, -192
	.cfi_offset 25, -208
	.cfi_offset 24, -224
	.cfi_offset 23, -240
	call	_Unwind_SjLj_Register
	.loc 4 119 0
	call	__main
.LBB18:
	.loc 4 120 0
	leaq	48(%rbp), %rax
	movq	%rax, %rcx
	call	_ZN6PngCRCC1Ev
	.loc 4 121 0
	movb	$-119, 1200(%rbp)
	movb	$80, 1201(%rbp)
	movb	$78, 1202(%rbp)
	movb	$71, 1203(%rbp)
	movb	$13, 1204(%rbp)
	movb	$10, 1205(%rbp)
	movb	$26, 1206(%rbp)
	movb	$10, 1207(%rbp)
	.loc 4 124 0
	leaq	1184(%rbp), %rax
	movl	$0, %edx
	movq	%rax, %rcx
	call	_Z13Chunk_sizeSetPcj
	.loc 4 125 0
	leaq	1184(%rbp), %rax
	movl	$1229278788, %edx
	movq	%rax, %rcx
	call	_Z11Chunk_IDSetPcj
	.loc 4 126 0
	leaq	48(%rbp), %rdx
	leaq	1184(%rbp), %rax
	movl	$0, %r8d
	movq	%rax, %rcx
	call	_Z12Chunk_CRCSetPcRK6PngCRCj
	.loc 4 128 0
	movq	__imp_GetDesktopWindow(%rip), %rax
	movl	$-1, -56(%rbp)
	call	*%rax
	movq	%rax, %rdx
	leaq	1072(%rbp), %rax
	movq	%rax, %rcx
	call	_ZN12FrameGrabberC1EP6HWND__
	.loc 4 129 0
	leaq	1072(%rbp), %rdx
	leaq	1168(%rbp), %rax
	movl	$1, -56(%rbp)
	movq	%rax, %rcx
	call	_ZN5ImageC1ER12FrameGrabber
	.loc 4 130 0
	leaq	1072(%rbp), %rax
	movl	$2, -56(%rbp)
	movq	%rax, %rcx
	call	_ZN12FrameGrabber4grabEv
	.loc 4 133 0
	leaq	1136(%rbp), %rax
	movl	$13, %edx
	movq	%rax, %rcx
	call	_Z13Chunk_sizeSetPcj
	.loc 4 134 0
	leaq	1136(%rbp), %rax
	movl	$1229472850, %edx
	movq	%rax, %rcx
	call	_Z11Chunk_IDSetPcj
	.loc 4 135 0
	leaq	1072(%rbp), %rax
	movq	%rax, %rcx
	call	_ZNK12FrameGrabber8widthGetEv
	movl	%eax, %edx
	leaq	1136(%rbp), %rax
	movq	%rax, %rcx
	call	_Z13IHDR_widthSetPci
	.loc 4 136 0
	leaq	1072(%rbp), %rax
	movq	%rax, %rcx
	call	_ZNK12FrameGrabber9heightGetEv
	movl	%eax, %edx
	leaq	1136(%rbp), %rax
	movq	%rax, %rcx
	call	_Z14IHDR_heightSetPci
	.loc 4 137 0
	leaq	1136(%rbp), %rax
	movl	$8, %edx
	movq	%rax, %rcx
	call	_Z16IHDR_bitDepthSetPcc
	.loc 4 138 0
	leaq	1136(%rbp), %rax
	movl	$2, %edx
	movq	%rax, %rcx
	call	_Z17IHDR_colorTypeSetPcc
	.loc 4 139 0
	leaq	1136(%rbp), %rax
	movl	$0, %edx
	movq	%rax, %rcx
	call	_Z25IHDR_compressionMethodSetPcc
	.loc 4 140 0
	leaq	1136(%rbp), %rax
	movl	$0, %edx
	movq	%rax, %rcx
	call	_Z20IHDR_filterMethodSetPcc
	.loc 4 141 0
	leaq	1136(%rbp), %rax
	movl	$0, %edx
	movq	%rax, %rcx
	call	_Z23IHDR_interlaceMethodSetPcc
	.loc 4 142 0
	leaq	48(%rbp), %rdx
	leaq	1136(%rbp), %rax
	movl	$13, %r8d
	movq	%rax, %rcx
	call	_Z12Chunk_CRCSetPcRK6PngCRCj
	.loc 4 145 0
	leaq	1072(%rbp), %rax
	movq	%rax, %rcx
	call	_ZNK12FrameGrabber8widthGetEv
	movl	%eax, %edx
	movl	%edx, %eax
	addl	%eax, %eax
	addl	%edx, %eax
	addl	$1, %eax
	movl	%eax, 44(%rbp)
	leaq	1072(%rbp), %rax
	movq	%rax, %rcx
	call	_ZNK12FrameGrabber9heightGetEv
	imull	44(%rbp), %eax
	cltq
	movq	%rax, 1240(%rbp)
	.loc 4 146 0
	movq	1240(%rbp), %rax
	movq	%rax, %rcx
	call	malloc
	movq	%rax, 1232(%rbp)
	.loc 4 147 0
	leaq	1072(%rbp), %rax
	movq	%rax, %rcx
	call	_ZNK12FrameGrabber9heightGetEv
	movl	%eax, 40(%rbp)
	leaq	1072(%rbp), %rax
	movq	%rax, %rcx
	call	_ZNK12FrameGrabber8widthGetEv
	movl	%eax, -68(%rbp)
	leaq	1168(%rbp), %rax
	movq	%rax, %rcx
	call	_ZN5Image7rowsGetEv
	movq	1232(%rbp), %rdx
	movl	40(%rbp), %r9d
	movl	-68(%rbp), %r8d
	movq	%rax, %rcx
	call	_Z11filterApplyPKPKhPcii
	.loc 4 148 0
	movq	1240(%rbp), %rax
	addq	$12, %rax
	movq	%rax, %rcx
	call	malloc
	movq	%rax, 1224(%rbp)
	.loc 4 150 0
	movq	1224(%rbp), %rax
	leaq	8(%rax), %rdx
	movq	1240(%rbp), %rcx
	movq	1232(%rbp), %rax
	movq	%rcx, %r8
	movq	%rax, %rcx
	call	_Z8compressPKcPcy
	movl	%eax, 1220(%rbp)
	.loc 4 151 0
	movl	1220(%rbp), %edx
	movq	1224(%rbp), %rax
	movq	%rax, %rcx
	call	_Z13Chunk_sizeSetPcj
	.loc 4 152 0
	movq	1224(%rbp), %rax
	movl	$1229209940, %edx
	movq	%rax, %rcx
	call	_Z11Chunk_IDSetPcj
	.loc 4 153 0
	movl	1220(%rbp), %ecx
	leaq	48(%rbp), %rdx
	movq	1224(%rbp), %rax
	movl	%ecx, %r8d
	movq	%rax, %rcx
	call	_Z12Chunk_CRCSetPcRK6PngCRCj
	.loc 4 156 0
	leaq	.LC4(%rip), %rdx
	leaq	.LC5(%rip), %rcx
	call	fopen
	.loc 4 156 0 is_stmt 0 discriminator 1
	movq	%rax, 1208(%rbp)
	.loc 4 158 0 is_stmt 1 discriminator 1
	movq	1208(%rbp), %rdx
	leaq	1200(%rbp), %rax
	movq	%rdx, %r9
	movl	$8, %r8d
	movl	$1, %edx
	movq	%rax, %rcx
	call	fwrite
	.loc 4 159 0
	movq	1208(%rbp), %rdx
	leaq	1136(%rbp), %rax
	movq	%rdx, %r9
	movl	$25, %r8d
	movl	$1, %edx
	movq	%rax, %rcx
	call	fwrite
	.loc 4 160 0
	movl	1220(%rbp), %eax
	movslq	%eax, %rdx
	movq	1208(%rbp), %rcx
	movq	1224(%rbp), %rax
	movq	%rcx, %r9
	movq	%rdx, %r8
	movl	$1, %edx
	movq	%rax, %rcx
	call	fwrite
	.loc 4 161 0
	movq	1208(%rbp), %rdx
	leaq	1184(%rbp), %rax
	movq	%rdx, %r9
	movl	$12, %r8d
	movl	$1, %edx
	movq	%rax, %rcx
	call	fwrite
	.loc 4 162 0
	movq	1224(%rbp), %rax
	movq	%rax, %rcx
	call	free
	.loc 4 163 0
	movq	1208(%rbp), %rax
	movq	%rax, %rcx
	call	fclose
	.loc 4 165 0
	movl	$0, -72(%rbp)
	.loc 4 129 0
	leaq	1168(%rbp), %rax
	movq	%rax, %rcx
	call	_ZN5ImageD1Ev
	.loc 4 128 0
	leaq	1072(%rbp), %rax
	movl	$-1, -56(%rbp)
	movq	%rax, %rcx
	call	_ZN12FrameGrabberD1Ev
	movl	-72(%rbp), %eax
	movl	%eax, -76(%rbp)
	leaq	-64(%rbp), %rax
	movq	%rax, %rcx
	call	_Unwind_SjLj_Unregister
.LBE18:
	.loc 4 166 0
	movl	-76(%rbp), %eax
	movaps	1248(%rbp), %xmm6
	movaps	1264(%rbp), %xmm7
	movaps	1280(%rbp), %xmm8
	movaps	1296(%rbp), %xmm9
	movaps	1312(%rbp), %xmm10
	movaps	1328(%rbp), %xmm11
	movaps	1344(%rbp), %xmm12
	movaps	1360(%rbp), %xmm13
	movaps	1376(%rbp), %xmm14
	movaps	1392(%rbp), %xmm15
	addq	$1544, %rsp
	.cfi_remember_state
	.cfi_restore 32
	.cfi_restore 31
	.cfi_restore 30
	.cfi_restore 29
	.cfi_restore 28
	.cfi_restore 27
	.cfi_restore 26
	.cfi_restore 25
	.cfi_restore 24
	.cfi_restore 23
	popq	%rbx
	.cfi_restore 3
	popq	%rsi
	.cfi_restore 4
	popq	%rdi
	.cfi_restore 5
	popq	%r12
	.cfi_restore 12
	popq	%r13
	.cfi_restore 13
	popq	%r14
	.cfi_restore 14
	popq	%r15
	.cfi_restore 15
	popq	%rbp
.LCFI97:
	.cfi_def_cfa 7, -1480
	.cfi_restore 6
	ret
.L66:
.LCFI98:
	.cfi_restore_state
	movq	%rdx, -96(%rbp)
.LBB19:
	.loc 4 129 0
	leaq	1168(%rbp), %rax
	movq	%rax, %rcx
	call	_ZN5ImageD1Ev
	movq	-96(%rbp), %rdx
	movq	%rdx, -88(%rbp)
	jmp	.L63
.L64:
	leaq	-1248(%rbp), %rbp
	movq	-48(%rbp), %rdx
	movl	-56(%rbp), %eax
	testl	%eax, %eax
	je	.L65
	cmpl	$1, %eax
	je	.L66
		.word	0x0b0f
.L65:
	movq	%rdx, -88(%rbp)
.L63:
	.loc 4 128 0
	leaq	1072(%rbp), %rax
	movl	$0, -56(%rbp)
	movq	%rax, %rcx
	call	_ZN12FrameGrabberD1Ev
	movq	-88(%rbp), %rax
	movl	$-1, -56(%rbp)
	movq	%rax, %rcx
	call	_Unwind_SjLj_Resume
	nop
.LBE19:
	.cfi_endproc
.LFE979:
	.section	.gcc_except_table,"w"
.LLSDA979:
	.byte	0xff
	.byte	0xff
	.byte	0x1
	.uleb128 .LLSDACSE979-.LLSDACSB979
.LLSDACSB979:
	.uleb128 0
	.uleb128 0
	.uleb128 0x1
	.uleb128 0
.LLSDACSE979:
	.text
	.seh_endproc
	.section .rdata,"dr"
	.align 8
_ZL17CHUNK_OFFSET_SIZE:
	.space 8
	.align 8
_ZL15CHUNK_OFFSET_ID:
	.quad	4
	.align 8
_ZL17CHUNK_OFFSET_DATA:
	.quad	8
	.align 8
_ZL15CHUNK_BASE_SIZE:
	.quad	12
	.align 8
_ZL9IHDR_SIZE:
	.quad	13
	.align 4
_ZL18IHDR_COLORTYPE_RGB:
	.long	2
	.text
.Letext0:
	.file 5 "d:/bin-win64/mingw64/bin/../lib/gcc/x86_64-w64-mingw32/4.6.1/../../../../x86_64-w64-mingw32/include/_mingw.h"
	.file 6 "d:/bin-win64/mingw64/bin/../lib/gcc/x86_64-w64-mingw32/4.6.1/../../../../x86_64-w64-mingw32/include/windef.h"
	.file 7 "d:/bin-win64/mingw64/bin/../lib/gcc/x86_64-w64-mingw32/4.6.1/../../../../x86_64-w64-mingw32/include/winnt.h"
	.file 8 "d:/bin-win64/mingw64/bin/../lib/gcc/x86_64-w64-mingw32/4.6.1/../../../../x86_64-w64-mingw32/include/stdlib.h"
	.file 9 "d:/bin-win64/mingw64/bin/../lib/gcc/x86_64-w64-mingw32/4.6.1/../../../../x86_64-w64-mingw32/include/wingdi.h"
	.file 10 "d:/bin-win64/mingw64/bin/../lib/gcc/x86_64-w64-mingw32/4.6.1/../../../../x86_64-w64-mingw32/include/stdio.h"
	.file 11 "d:/bin-win64/mingw64/bin/../lib/gcc/x86_64-w64-mingw32/4.6.1/include/c++/cstdio"
	.file 12 "d:/bin-win64/mingw64/bin/../lib/gcc/x86_64-w64-mingw32/4.6.1/include/c++/cstring"
	.file 13 "d:/bin-win64/mingw64/bin/../lib/gcc/x86_64-w64-mingw32/4.6.1/include/c++/cstdlib"
	.file 14 "FileOut.h"
	.file 15 "d:/bin-win64/mingw64/bin/../lib/gcc/x86_64-w64-mingw32/4.6.1/../../../../x86_64-w64-mingw32/include/string.h"
	.file 16 "<built-in>"
	.file 17 "TmpBuffer.h"
	.file 18 "D:/msys-win64/include/zconf.h"
	.file 19 "D:/msys-win64/include/zlib.h"
	.file 20 "d:/bin-win64/mingw64/bin/../lib/gcc/x86_64-w64-mingw32/4.6.1/../../../../x86_64-w64-mingw32/include/stdint.h"
	.file 21 "d:/bin-win64/mingw64/bin/../lib/gcc/x86_64-w64-mingw32/4.6.1/include/c++/debug/debug.h"
	.file 22 "d:/bin-win64/mingw64/bin/../lib/gcc/x86_64-w64-mingw32/4.6.1/include/c++/ext/numeric_traits.h"
	.file 23 "d:/bin-win64/mingw64/bin/../lib/gcc/x86_64-w64-mingw32/4.6.1/include/c++/new"
	.data
	.align 8
.LDFCM0:
	.quad	__gxx_personality_sj0
	.def	__cxa_allocate_exception;	.scl	2;	.type	32;	.endef
	.def	__cxa_throw;	.scl	2;	.type	32;	.endef
	.def	malloc;	.scl	2;	.type	32;	.endef
	.def	free;	.scl	2;	.type	32;	.endef
	.def	deflateInit2_;	.scl	2;	.type	32;	.endef
	.def	deflate;	.scl	2;	.type	32;	.endef
	.def	printf;	.scl	2;	.type	32;	.endef
	.def	deflateEnd;	.scl	2;	.type	32;	.endef
	.def	_Unwind_SjLj_Resume;	.scl	2;	.type	32;	.endef
	.def	fopen;	.scl	2;	.type	32;	.endef
	.def	fwrite;	.scl	2;	.type	32;	.endef
	.def	fclose;	.scl	2;	.type	32;	.endef
